target datalayout = "e-m:e-p270:32:32-p271:32:32-p272:64:64-i64:64-i128:128-f80:128-n8:16:32:64-S128"
target triple = "x86_64-pc-linux-gnu"

; Function Attrs: nounwind uwtable
define void @ggml_quantize_init(i32 noundef %0) #5 {
  %2 = alloca i32, align 4
  store i32 %0, ptr %2, align 4, !tbaa !8
  call void @ggml_critical_section_start()
  %3 = load i32, ptr %2, align 4, !tbaa !8
  switch i32 %3, label %8 [
    i32 16, label %4
    i32 17, label %4
    i32 22, label %4
    i32 19, label %4
    i32 29, label %4
    i32 18, label %6
    i32 21, label %7
  ]

4:                                                ; preds = %1, %1, %1, %1, %1
  %5 = load i32, ptr %2, align 4, !tbaa !8
  call void @iq2xs_init_impl(i32 noundef %5)
  br label %9

6:                                                ; preds = %1
  call void @iq3xs_init_impl(i32 noundef 256)
  br label %9

7:                                                ; preds = %1
  call void @iq3xs_init_impl(i32 noundef 512)
  br label %9

8:                                                ; preds = %1
  br label %9

9:                                                ; preds = %8, %7, %6, %4
  call void @ggml_critical_section_end()
  ret void
}