; Function Attrs: nounwind uwtable
define void @ggml_quantize_init(i32 noundef %0) local_unnamed_addr #4 {
  tail call void @ggml_critical_section_start() #42
  switch i32 %0, label %5 [
    i32 16, label %2
    i32 17, label %2
    i32 22, label %2
    i32 19, label %2
    i32 29, label %2
    i32 18, label %3
    i32 21, label %4
  ]

2:                                                ; preds = %1, %1, %1, %1, %1
  tail call void @iq2xs_init_impl(i32 noundef %0) #42
  br label %5

3:                                                ; preds = %1
  tail call void @iq3xs_init_impl(i32 noundef 256) #42
  br label %5

4:                                                ; preds = %1
  tail call void @iq3xs_init_impl(i32 noundef 512) #42
  br label %5

5:                                                ; preds = %1, %4, %3, %2
  tail call void @ggml_critical_section_end() #42
  ret void
}